Certificate:
    Data:
        Version: 3 (0x2)
        Serial Number: 5070249797417915536 (0x465d2553d1975490)
        Signature Algorithm: sha256WithRSAEncryption
        Issuer: C = BG, O = Sep Bulgaria JSC, organizationIdentifier = NTRBG-131107204, OU = SEP Bulgaria JSC Qualified Root Authority, CN = eSign Sep Root CA
        Validity
            Not Before: Oct  8 23:04:01 2017 GMT
            Not After : Oct  8 19:01:04 2037 GMT
        Subject: C = BG, O = Sep Bulgaria JSC, organizationIdentifier = NTRBG-131107204, OU = SEP Bulgaria JSC Qualified QES Authority, CN = eSign Sep QES CA
        Subject Public Key Info:
            Public Key Algorithm: rsaEncryption
                RSA Public-Key: (4096 bit)
                Modulus:
                    00:8c:74:dd:0e:e8:b7:b6:c5:5c:ce:ef:c8:fd:1f:
                    70:17:ff:71:b3:13:4c:0c:f9:71:ce:34:84:71:b9:
                    a7:e1:0e:dc:46:14:ea:00:11:b5:00:f0:aa:52:c6:
                    e6:8e:ed:3b:03:21:15:3b:dd:df:32:3d:fe:b1:63:
                    7e:68:8b:8a:68:6e:11:9e:11:e7:eb:f2:59:f6:35:
                    53:64:c1:a0:b9:1d:fc:be:29:bb:2c:28:6a:0e:3d:
                    6b:6f:95:71:9f:aa:e6:e5:6c:cd:23:37:c6:b0:98:
                    12:ab:a8:0f:a5:b2:24:23:d0:f7:7a:3c:80:92:47:
                    4e:56:92:b8:c2:d6:71:73:62:37:3e:19:ab:01:e1:
                    54:35:bb:6c:bd:c2:34:82:2c:27:d4:a6:3e:84:55:
                    54:56:78:7e:46:12:47:4b:7a:46:66:91:da:fe:98:
                    d9:1c:2c:3f:87:37:83:19:a5:6c:0a:1d:34:a5:07:
                    ba:54:93:48:d7:a0:de:74:3d:1c:52:42:e7:48:8e:
                    9b:cc:fc:3f:87:21:87:40:13:c8:ec:db:91:15:00:
                    72:06:14:80:bf:d0:ef:7f:40:f4:62:75:1e:83:86:
                    db:ab:d1:37:4f:31:a8:74:2f:6c:2a:6a:3a:b8:f6:
                    7d:1d:17:81:a3:e2:e0:62:aa:f4:ee:10:18:64:20:
                    72:f5:ae:e9:7d:c4:5b:c6:fd:60:cd:e9:1e:7f:74:
                    fd:8e:67:50:6b:88:d3:2d:a1:b5:08:03:01:ca:ae:
                    59:52:c1:b6:b8:03:f8:70:57:ac:4e:6e:2f:28:4b:
                    47:37:9a:cf:28:82:74:d7:e1:a0:bb:33:a5:db:0e:
                    da:e8:e6:bb:84:34:e2:2c:14:9b:f2:25:55:47:70:
                    9d:80:18:61:a5:b7:76:5c:29:5b:f5:90:74:03:05:
                    1d:35:44:ef:8e:7a:e0:7b:e4:5e:b5:c6:53:65:ad:
                    2d:50:ff:d1:b7:b5:9f:0d:d5:48:6c:46:fc:80:4d:
                    81:27:9f:cd:f0:79:68:c4:35:24:2c:98:9f:33:e2:
                    67:c2:65:ac:fe:fe:f3:c7:ff:f8:68:95:87:51:6d:
                    c4:8d:35:3b:b3:01:1e:50:b5:aa:88:1e:53:9e:42:
                    b1:49:df:cb:e4:b1:67:02:a0:6d:41:07:02:47:cc:
                    70:6b:ef:66:bd:95:05:bf:66:3a:49:9d:23:33:f3:
                    2c:d0:4a:4c:5e:49:c5:24:94:aa:68:b0:85:ec:9b:
                    53:1b:4f:66:b4:42:84:16:83:6b:00:be:35:65:c2:
                    9c:48:2d:10:f8:ae:ac:c9:b1:52:92:01:bc:66:8f:
                    3c:cb:89:df:81:49:f1:0d:db:d2:d8:c1:89:75:96:
                    84:7b:61
                Exponent: 65537 (0x10001)
        X509v3 extensions:
            Authority Information Access: 
                CA Issuers - URI:https://www.esign.bg/bg/services/public-register/eSign_Sep_Root_CA.crt
                OCSP - URI:http://ocsp.esign.bg/ocsp

            X509v3 Subject Key Identifier: 
                D5:E2:9D:6A:B5:13:53:00:CE:1D:7D:A4:11:BA:09:03:1C:90:5B:4E
            X509v3 Basic Constraints: critical
                CA:TRUE
            X509v3 Authority Key Identifier: 
                keyid:1A:37:49:D3:54:BD:68:4B:E5:34:23:15:62:A4:16:BD:67:4F:25:E0

            X509v3 Certificate Policies: 
                Policy: 1.3.6.1.4.1.30299.3.1
                  CPS: https://www.esign.bg/bg/useful/documents/

            X509v3 CRL Distribution Points: 

                Full Name:
                  URI:http://crl.sep.bg/eSignSepRootCA.crl

            X509v3 Key Usage: critical
                Certificate Sign, CRL Sign
    Signature Algorithm: sha256WithRSAEncryption
         82:c3:c1:f5:3a:20:51:aa:dd:62:f4:62:96:4f:51:17:29:17:
         2b:7c:29:30:25:2e:1f:b4:ef:78:3c:d3:68:c8:bd:c4:c0:0c:
         f5:31:51:a2:78:7c:ec:3a:b7:c4:14:a4:26:38:29:0b:db:5a:
         1c:10:4c:81:cc:50:86:a3:25:16:64:11:c2:4e:26:01:ef:c9:
         9c:8b:f9:87:64:39:b5:52:7b:33:c1:68:0d:8d:90:c4:8c:f0:
         90:d8:9a:33:02:f6:d9:e5:a4:be:af:16:8d:b1:1e:93:e2:62:
         95:be:4b:44:93:4c:df:52:64:d6:41:2e:c2:1f:76:6a:1f:2b:
         2d:b7:0f:f5:a6:dd:4b:99:70:b2:b9:ab:82:32:0c:38:88:f0:
         3d:e3:eb:41:9b:d0:ef:23:ea:c4:51:cc:0c:ae:b8:fd:13:8e:
         2b:17:40:71:96:8f:19:e3:f0:be:a8:a1:c3:a1:98:7f:eb:ce:
         a5:00:9a:2c:74:50:45:6f:ab:cc:6e:d7:4c:4e:a9:74:08:36:
         11:f4:5b:fe:76:d6:86:84:e8:d1:84:d3:4a:dc:ac:21:8e:7d:
         ce:07:ea:d5:56:3a:7f:c2:ce:02:76:73:96:3d:e0:77:4c:e7:
         5a:80:34:a6:02:2c:60:8a:f5:84:24:b1:7f:9a:31:52:7c:6b:
         8f:05:6f:0f:8c:85:e3:e6:3d:b8:4a:48:cd:c3:24:e0:60:19:
         67:c8:02:e2:ea:a3:80:71:0c:7d:6e:0f:e7:b4:30:00:f7:c1:
         c5:69:3a:9a:30:a5:e1:e5:6c:ed:64:eb:4e:f9:e0:9d:b9:85:
         37:8e:94:68:03:c2:5c:1e:5e:50:97:3e:8d:69:94:db:a5:95:
         f4:b7:8b:3f:fc:1c:19:a1:10:e5:22:e8:40:6b:cb:63:c3:5c:
         36:b5:6f:c2:93:5a:08:a8:a7:32:d4:16:78:6d:92:ef:ec:5d:
         80:19:6d:b0:9b:46:6d:9c:58:d8:d8:f0:1b:61:45:a1:46:9c:
         43:cf:a6:93:08:c1:77:19:a6:02:43:c8:d9:9f:74:f8:c5:fa:
         21:02:1b:30:b2:0b:72:24:af:1b:07:2e:34:74:bb:6a:6c:d6:
         8d:1e:b2:c9:2f:b7:e2:13:21:01:b1:24:8a:cb:a5:d3:00:94:
         5e:ea:f1:a9:f5:81:68:0d:bf:d1:89:71:64:ea:73:e4:3f:e6:
         4e:a3:4e:35:27:a2:30:d7:4a:2c:17:07:f9:16:6b:2b:43:1c:
         86:3e:d8:79:87:0c:3c:93:36:ae:74:c4:7d:04:c1:79:86:9d:
         78:04:90:07:a0:3a:6b:8e:00:c1:c3:58:3e:a7:b3:5e:0b:bf:
         cb:2e:1b:94:33:0d:01:df
-----BEGIN CERTIFICATE-----
MIIHIjCCBQqgAwIBAgIIRl0lU9GXVJAwDQYJKoZIhvcNAQELBQAwgZIxCzAJBgNV
BAYTAkJHMRkwFwYDVQQKDBBTZXAgQnVsZ2FyaWEgSlNDMRgwFgYDVQRhDA9OVFJC
Ry0xMzExMDcyMDQxMjAwBgNVBAsMKVNFUCBCdWxnYXJpYSBKU0MgUXVhbGlmaWVk
IFJvb3QgQXV0aG9yaXR5MRowGAYDVQQDDBFlU2lnbiBTZXAgUm9vdCBDQTAeFw0x
NzEwMDgyMzA0MDFaFw0zNzEwMDgxOTAxMDRaMIGQMQswCQYDVQQGEwJCRzEZMBcG
A1UECgwQU2VwIEJ1bGdhcmlhIEpTQzEYMBYGA1UEYQwPTlRSQkctMTMxMTA3MjA0
MTEwLwYDVQQLDChTRVAgQnVsZ2FyaWEgSlNDIFF1YWxpZmllZCBRRVMgQXV0aG9y
aXR5MRkwFwYDVQQDDBBlU2lnbiBTZXAgUUVTIENBMIICIjANBgkqhkiG9w0BAQEF
AAOCAg8AMIICCgKCAgEAjHTdDui3tsVczu/I/R9wF/9xsxNMDPlxzjSEcbmn4Q7c
RhTqABG1APCqUsbmju07AyEVO93fMj3+sWN+aIuKaG4RnhHn6/JZ9jVTZMGguR38
vim7LChqDj1rb5Vxn6rm5WzNIzfGsJgSq6gPpbIkI9D3ejyAkkdOVpK4wtZxc2I3
PhmrAeFUNbtsvcI0giwn1KY+hFVUVnh+RhJHS3pGZpHa/pjZHCw/hzeDGaVsCh00
pQe6VJNI16DedD0cUkLnSI6bzPw/hyGHQBPI7NuRFQByBhSAv9Dvf0D0YnUeg4bb
q9E3TzGodC9sKmo6uPZ9HReBo+LgYqr07hAYZCBy9a7pfcRbxv1gzekef3T9jmdQ
a4jTLaG1CAMByq5ZUsG2uAP4cFesTm4vKEtHN5rPKIJ01+GguzOl2w7a6Oa7hDTi
LBSb8iVVR3CdgBhhpbd2XClb9ZB0AwUdNUTvjnrge+RetcZTZa0tUP/Rt7WfDdVI
bEb8gE2BJ5/N8HloxDUkLJifM+JnwmWs/v7zx//4aJWHUW3EjTU7swEeULWqiB5T
nkKxSd/L5LFnAqBtQQcCR8xwa+9mvZUFv2Y6SZ0jM/Ms0EpMXknFJJSqaLCF7JtT
G09mtEKEFoNrAL41ZcKcSC0Q+K6sybFSkgG8Zo88y4nfgUnxDdvS2MGJdZaEe2EC
AwEAAaOCAXowggF2MIGJBggrBgEFBQcBAQR9MHswUgYIKwYBBQUHMAKGRmh0dHBz
Oi8vd3d3LmVzaWduLmJnL2JnL3NlcnZpY2VzL3B1YmxpYy1yZWdpc3Rlci9lU2ln
bl9TZXBfUm9vdF9DQS5jcnQwJQYIKwYBBQUHMAGGGWh0dHA6Ly9vY3NwLmVzaWdu
LmJnL29jc3AwHQYDVR0OBBYEFNXinWq1E1MAzh19pBG6CQMckFtOMA8GA1UdEwEB
/wQFMAMBAf8wHwYDVR0jBBgwFoAUGjdJ01S9aEvlNCMVYqQWvWdPJeAwUAYDVR0g
BEkwRzBFBgorBgEEAYHsWwMBMDcwNQYIKwYBBQUHAgEWKWh0dHBzOi8vd3d3LmVz
aWduLmJnL2JnL3VzZWZ1bC9kb2N1bWVudHMvMDUGA1UdHwQuMCwwKqAooCaGJGh0
dHA6Ly9jcmwuc2VwLmJnL2VTaWduU2VwUm9vdENBLmNybDAOBgNVHQ8BAf8EBAMC
AQYwDQYJKoZIhvcNAQELBQADggIBAILDwfU6IFGq3WL0YpZPURcpFyt8KTAlLh+0
73g802jIvcTADPUxUaJ4fOw6t8QUpCY4KQvbWhwQTIHMUIajJRZkEcJOJgHvyZyL
+YdkObVSezPBaA2NkMSM8JDYmjMC9tnlpL6vFo2xHpPiYpW+S0STTN9SZNZBLsIf
dmofKy23D/Wm3UuZcLK5q4IyDDiI8D3j60Gb0O8j6sRRzAyuuP0TjisXQHGWjxnj
8L6oocOhmH/rzqUAmix0UEVvq8xu10xOqXQINhH0W/521oaE6NGE00rcrCGOfc4H
6tVWOn/CzgJ2c5Y94HdM51qANKYCLGCK9YQksX+aMVJ8a48Fbw+MhePmPbhKSM3D
JOBgGWfIAuLqo4BxDH1uD+e0MAD3wcVpOpowpeHlbO1k60754J25hTeOlGgDwlwe
XlCXPo1plNullfS3iz/8HBmhEOUi6EBry2PDXDa1b8KTWgiopzLUFnhtku/sXYAZ
bbCbRm2cWNjY8BthRaFGnEPPppMIwXcZpgJDyNmfdPjF+iECGzCyC3IkrxsHLjR0
u2ps1o0esskvt+ITIQGxJIrLpdMAlF7q8an1gWgNv9GJcWTqc+Q/5k6jTjUnojDX
SiwXB/kWaytDHIY+2HmHDDyTNq50xH0EwXmGnXgEkAegOmuOAMHDWD6ns14Lv8su
G5QzDQHf
-----END CERTIFICATE-----
