Certificate:
    Data:
        Version: 3 (0x2)
        Serial Number: 2186058764857673603 (0x1e5670dd49788783)
        Signature Algorithm: sha256WithRSAEncryption
        Issuer: C = BG, O = Sep Bulgaria JSC, organizationIdentifier = NTRBG-131107204, OU = SEP Bulgaria JSC Qualified QES Authority, CN = eSign Sep QES CA
        Validity
            Not Before: Oct 16 14:01:00 2017 GMT
            Not After : Oct 16 14:01:00 2022 GMT
        Subject: C = BG, L = Sofia, O = SEP Bulgaria JSC, CN = OCSP Signer
        Subject Public Key Info:
            Public Key Algorithm: rsaEncryption
                RSA Public-Key: (2048 bit)
                Modulus:
                    00:c9:41:7f:df:e5:6c:65:6d:20:26:7c:4f:6b:67:
                    2d:9f:fd:05:c1:81:9a:94:08:45:4e:68:c5:bb:ce:
                    65:35:4f:0b:54:10:31:2a:ad:d0:03:53:4b:3c:e0:
                    50:3b:04:a3:54:46:c4:2c:ec:c9:5c:42:17:26:31:
                    c3:c9:06:20:52:45:91:0e:6c:7a:04:d2:9c:d3:c9:
                    be:d1:06:54:80:3b:df:70:ff:39:98:b3:43:85:d8:
                    ea:a1:0f:76:dd:9f:8b:b5:f9:55:b2:8e:15:06:71:
                    35:79:f1:b3:8a:94:52:7f:86:69:65:1b:f6:7b:57:
                    3c:67:94:3e:36:6a:12:95:e9:32:30:e1:ea:2c:8a:
                    c6:07:e0:77:07:e1:66:5f:54:20:b9:4b:19:e6:92:
                    b6:c3:5f:f0:c6:d4:d3:ee:ef:cd:2a:28:24:93:20:
                    c2:dc:8d:7c:25:36:b8:2f:74:e9:49:12:df:0e:21:
                    b3:9b:63:12:b0:83:54:2c:b6:e8:4f:fd:83:2f:03:
                    8b:40:ad:3e:9b:2a:f0:62:2f:9b:bb:cc:42:02:14:
                    8a:83:10:e0:5d:1f:93:3f:44:fb:24:00:12:e1:29:
                    b1:a0:cb:18:c2:02:46:d5:0d:2b:f0:9f:79:3c:9e:
                    d4:cf:e0:51:d9:f7:67:38:e8:79:31:16:c2:83:bb:
                    c3:7f
                Exponent: 65537 (0x10001)
        X509v3 extensions:
            X509v3 Subject Key Identifier: 
                3B:AD:AA:24:C3:8D:C9:B5:83:4C:7C:52:68:0F:96:F9:16:51:84:23
            X509v3 Basic Constraints: critical
                CA:FALSE
            X509v3 Authority Key Identifier: 
                keyid:D5:E2:9D:6A:B5:13:53:00:CE:1D:7D:A4:11:BA:09:03:1C:90:5B:4E

            X509v3 Certificate Policies: 
                Policy: 1.3.6.1.4.1.30299.3.1.1
                  CPS: https://www.esign.bg/bg/useful/documents/

            X509v3 CRL Distribution Points: 

                Full Name:
                  URI:http://crl.sep.bg/eSignSepQESCA.crl

            X509v3 Key Usage: critical
                Digital Signature
            X509v3 Extended Key Usage: critical
                OCSP Signing
    Signature Algorithm: sha256WithRSAEncryption
         70:22:85:00:cd:0b:38:c6:ba:b8:f0:2f:18:02:b3:21:03:7c:
         89:f5:91:48:2b:fc:03:d3:c9:9a:1d:0d:0a:58:37:47:bd:85:
         27:f4:d5:ad:fc:b9:bf:57:58:88:9f:61:09:22:8c:a4:00:f6:
         df:cd:b9:38:fa:c1:cd:cb:3c:4a:e8:b1:b5:b2:dd:52:99:55:
         a5:d3:45:0e:bb:bb:a0:17:80:4c:d2:74:7a:70:a2:86:db:f7:
         16:4d:93:9d:57:b3:3a:a7:53:09:58:ff:96:e3:e2:06:a7:fa:
         46:f3:2f:ba:24:5d:0e:c2:45:ff:dd:ea:d3:82:f9:2e:8e:c0:
         f4:b3:6b:1b:b9:e3:b4:37:5b:c3:a8:e7:83:2d:53:ce:5f:f8:
         2d:4d:f5:2c:b3:6f:31:f7:02:c6:6f:5d:06:44:d3:bf:f4:5a:
         78:64:13:ba:e1:2f:73:a1:bd:3f:d1:bf:54:c9:d1:3d:8e:07:
         17:e5:35:84:3f:ba:46:aa:fe:62:8a:ac:2d:c7:b2:06:ba:0a:
         1a:ba:24:ba:ae:6f:75:9c:90:dc:49:d6:d4:77:29:20:5d:f9:
         ea:e8:2b:0e:98:6f:54:ee:e3:ab:48:a0:28:91:8e:71:0a:b9:
         c1:93:c0:01:fb:70:f1:ee:f0:fd:ed:e0:19:d4:ce:9f:4f:e5:
         6f:13:1a:75:e3:88:ac:c3:cd:20:70:77:4c:7c:c5:1e:4e:7d:
         77:06:db:87:a6:0a:48:09:7a:12:9f:d2:f8:72:5f:97:c4:c6:
         e9:c8:e7:65:4c:f7:31:1e:43:3e:a7:ad:56:4f:80:b8:62:62:
         11:d0:68:40:97:ea:b6:ad:09:43:05:a1:e1:e8:2b:2d:78:1f:
         1b:42:fa:55:c3:89:76:90:8a:ab:af:77:4d:06:00:e7:79:84:
         79:97:bc:07:bb:73:f9:fd:a7:01:41:f4:cd:ec:f8:2a:cc:22:
         fa:51:21:3e:68:4a:59:d9:9c:cc:d1:f1:ec:df:7b:4a:67:7c:
         c1:18:e5:f6:5c:62:d8:74:67:22:c6:26:d9:23:7f:77:3e:8f:
         27:91:37:7b:58:7f:82:66:1c:23:9e:57:6e:18:51:54:97:f7:
         f0:5c:32:13:6f:92:e3:77:be:88:28:5c:68:e9:10:b8:60:54:
         43:fd:79:f7:e9:1b:b7:72:cf:2b:a3:62:ac:9c:c1:0c:ab:f2:
         0a:94:f5:61:f2:1b:62:20:c0:49:f6:14:41:b9:7f:8b:8f:9e:
         2e:1b:95:74:77:e6:c1:ad:d0:fc:3c:8c:d9:b8:13:a1:2a:7d:
         03:91:27:2f:c2:b7:42:fa:6d:9d:e3:42:69:eb:c6:cb:7c:2f:
         b3:c2:56:ef:1d:9b:54:f3
-----BEGIN CERTIFICATE-----
MIIFZTCCA02gAwIBAgIIHlZw3Ul4h4MwDQYJKoZIhvcNAQELBQAwgZAxCzAJBgNV
BAYTAkJHMRkwFwYDVQQKDBBTZXAgQnVsZ2FyaWEgSlNDMRgwFgYDVQRhDA9OVFJC
Ry0xMzExMDcyMDQxMTAvBgNVBAsMKFNFUCBCdWxnYXJpYSBKU0MgUXVhbGlmaWVk
IFFFUyBBdXRob3JpdHkxGTAXBgNVBAMMEGVTaWduIFNlcCBRRVMgQ0EwHhcNMTcx
MDE2MTQwMTAwWhcNMjIxMDE2MTQwMTAwWjBOMQswCQYDVQQGEwJCRzEOMAwGA1UE
BwwFU29maWExGTAXBgNVBAoMEFNFUCBCdWxnYXJpYSBKU0MxFDASBgNVBAMMC09D
U1AgU2lnbmVyMIIBIjANBgkqhkiG9w0BAQEFAAOCAQ8AMIIBCgKCAQEAyUF/3+Vs
ZW0gJnxPa2ctn/0FwYGalAhFTmjFu85lNU8LVBAxKq3QA1NLPOBQOwSjVEbELOzJ
XEIXJjHDyQYgUkWRDmx6BNKc08m+0QZUgDvfcP85mLNDhdjqoQ923Z+LtflVso4V
BnE1efGzipRSf4ZpZRv2e1c8Z5Q+NmoSlekyMOHqLIrGB+B3B+FmX1QguUsZ5pK2
w1/wxtTT7u/NKigkkyDC3I18JTa4L3TpSRLfDiGzm2MSsINULLboT/2DLwOLQK0+
myrwYi+bu8xCAhSKgxDgXR+TP0T7JAAS4SmxoMsYwgJG1Q0r8J95PJ7Uz+BR2fdn
OOh5MRbCg7vDfwIDAQABo4IBAjCB/zAdBgNVHQ4EFgQUO62qJMONybWDTHxSaA+W
+RZRhCMwDAYDVR0TAQH/BAIwADAfBgNVHSMEGDAWgBTV4p1qtRNTAM4dfaQRugkD
HJBbTjBRBgNVHSAESjBIMEYGCysGAQQBgexbAwEBMDcwNQYIKwYBBQUHAgEWKWh0
dHBzOi8vd3d3LmVzaWduLmJnL2JnL3VzZWZ1bC9kb2N1bWVudHMvMDQGA1UdHwQt
MCswKaAnoCWGI2h0dHA6Ly9jcmwuc2VwLmJnL2VTaWduU2VwUUVTQ0EuY3JsMA4G
A1UdDwEB/wQEAwIHgDAWBgNVHSUBAf8EDDAKBggrBgEFBQcDCTANBgkqhkiG9w0B
AQsFAAOCAgEAcCKFAM0LOMa6uPAvGAKzIQN8ifWRSCv8A9PJmh0NClg3R72FJ/TV
rfy5v1dYiJ9hCSKMpAD23825OPrBzcs8SuixtbLdUplVpdNFDru7oBeATNJ0enCi
htv3Fk2TnVezOqdTCVj/luPiBqf6RvMvuiRdDsJF/93q04L5Lo7A9LNrG7njtDdb
w6jngy1Tzl/4LU31LLNvMfcCxm9dBkTTv/RaeGQTuuEvc6G9P9G/VMnRPY4HF+U1
hD+6Rqr+YoqsLceyBroKGrokuq5vdZyQ3EnW1HcpIF356ugrDphvVO7jq0igKJGO
cQq5wZPAAftw8e7w/e3gGdTOn0/lbxMadeOIrMPNIHB3THzFHk59dwbbh6YKSAl6
Ep/S+HJfl8TG6cjnZUz3MR5DPqetVk+AuGJiEdBoQJfqtq0JQwWh4egrLXgfG0L6
VcOJdpCKq693TQYA53mEeZe8B7tz+f2nAUH0zez4Kswi+lEhPmhKWdmczNHx7N97
Smd8wRjl9lxi2HRnIsYm2SN/dz6PJ5E3e1h/gmYcI55XbhhRVJf38FwyE2+S43e+
iChcaOkQuGBUQ/159+kbt3LPK6NirJzBDKvyCpT1YfIbYiDASfYUQbl/i4+eLhuV
dHfmwa3Q/DyM2bgToSp9A5EnL8K3QvptneNCaevGy3wvs8JW7x2bVPM=
-----END CERTIFICATE-----
